target datalayout = "e-m:e-p270:32:32-p271:32:32-p272:64:64-i64:64-i128:128-f80:128-n8:16:32:64-S128"
target triple = "x86_64-pc-linux-gnu"

%struct.zstream = type { i64, i64, i64, i64, %struct.z_stream_s, ptr }
%struct.z_stream_s = type { ptr, i32, i64, ptr, i32, i64, ptr, ptr, ptr, ptr, ptr, i32, i64, i64 }
%struct.gzfile = type { %struct.zstream, i64, i32, i32, i64, i64, i64, i64, i32, i32, i64, ptr, ptr, ptr, ptr, i64, i64 }
%struct.RString = type { %struct.RBasic, i64, %union.anon }
%struct.RBasic = type { i64, i64 }
%union.anon = type { %struct.anon }
%struct.anon = type { ptr, %union.anon.0 }
%union.anon.0 = type { i64 }
%struct.anon.1 = type { [1 x i8] }

@cNoFooter = internal global i64 0, align 8
@cCRCError = internal global i64 0, align 8
@cLengthError = internal global i64 0, align 8
@.str.182 = private unnamed_addr constant [20 x i8] c"footer is not found\00", align 1
@.str.183 = private unnamed_addr constant [37 x i8] c"invalid compressed data -- crc error\00", align 1
@.str.184 = private unnamed_addr constant [40 x i8] c"invalid compressed data -- length error\00", align 1

; Function Attrs: inlinehint nounwind sspstrong willreturn memory(read) uwtable
define internal i64 @RB_FL_TEST_RAW(i64 noundef %0, i64 noundef %1) #6 {
  %3 = alloca i64, align 8
  %4 = alloca i64, align 8
  store i64 %0, ptr %3, align 8, !tbaa !6
  store i64 %1, ptr %4, align 8, !tbaa !6
  %5 = load i64, ptr %3, align 8, !tbaa !6
  %6 = inttoptr i64 %5 to ptr
  %7 = getelementptr inbounds nuw %struct.RBasic, ptr %6, i32 0, i32 0
  %8 = load i64, ptr %7, align 8, !tbaa !91
  %9 = load i64, ptr %4, align 8, !tbaa !6
  %10 = and i64 %8, %9
  ret i64 %10
}

; Function Attrs: inlinehint nounwind sspstrong willreturn memory(read) uwtable
define internal i64 @RSTRING_LEN(i64 noundef %0) #6 {
  %2 = alloca i64, align 8
  store i64 %0, ptr %2, align 8, !tbaa !6
  %3 = load i64, ptr %2, align 8, !tbaa !6
  %4 = inttoptr i64 %3 to ptr
  %5 = getelementptr inbounds nuw %struct.RString, ptr %4, i32 0, i32 1
  %6 = load i64, ptr %5, align 8, !tbaa !88
  ret i64 %6
}

; Function Attrs: inlinehint nounwind sspstrong willreturn memory(read) uwtable
define internal zeroext i1 @RB_FL_ANY_RAW(i64 noundef %0, i64 noundef %1) #6 {
  %3 = alloca i64, align 8
  %4 = alloca i64, align 8
  store i64 %0, ptr %3, align 8, !tbaa !6
  store i64 %1, ptr %4, align 8, !tbaa !6
  %5 = load i64, ptr %3, align 8, !tbaa !6
  %6 = load i64, ptr %4, align 8, !tbaa !6
  %7 = call i64 @RB_FL_TEST_RAW(i64 noundef %5, i64 noundef %6) #25
  %8 = icmp ne i64 %7, 0
  ret i1 %8
}

; Function Attrs: inlinehint nounwind sspstrong willreturn memory(read, argmem: readwrite) uwtable
define internal void @rbimpl_rstring_getmem(ptr dead_on_unwind noalias writable sret(%struct.RString) align 8 %0, i64 noundef %1) #9 {
  %3 = alloca i64, align 8
  store i64 %1, ptr %3, align 8, !tbaa !6
  %4 = load i64, ptr %3, align 8, !tbaa !6
  %5 = call zeroext i1 @RB_FL_ANY_RAW(i64 noundef %4, i64 noundef 8192) #25
  br i1 %5, label %6, label %9

6:                                                ; preds = %2
  %7 = load i64, ptr %3, align 8, !tbaa !6
  %8 = inttoptr i64 %7 to ptr
  call void @llvm.memcpy.p0.p0.i64(ptr align 8 %0, ptr align 8 %8, i64 40, i1 false), !tbaa.struct !92
  br label %20

9:                                                ; preds = %2
  %10 = load i64, ptr %3, align 8, !tbaa !6
  %11 = call i64 @RSTRING_LEN(i64 noundef %10) #25
  %12 = getelementptr inbounds nuw %struct.RString, ptr %0, i32 0, i32 1
  store i64 %11, ptr %12, align 8, !tbaa !88
  %13 = load i64, ptr %3, align 8, !tbaa !6
  %14 = inttoptr i64 %13 to ptr
  %15 = getelementptr inbounds nuw %struct.RString, ptr %14, i32 0, i32 2
  %16 = getelementptr inbounds nuw %struct.anon.1, ptr %15, i32 0, i32 0
  %17 = getelementptr inbounds [1 x i8], ptr %16, i64 0, i64 0
  %18 = getelementptr inbounds nuw %struct.RString, ptr %0, i32 0, i32 2
  %19 = getelementptr inbounds nuw %struct.anon, ptr %18, i32 0, i32 0
  store ptr %17, ptr %19, align 8, !tbaa !68
  br label %20

20:                                               ; preds = %9, %6
  ret void
}

; Function Attrs: nounwind sspstrong uwtable
define internal i64 @gzfile_get32(ptr noundef %0) #0 {
  %2 = alloca ptr, align 8
  %3 = alloca i64, align 8
  store ptr %0, ptr %2, align 8, !tbaa !19
  call void @llvm.lifetime.start.p0(i64 8, ptr %3) #23
  %4 = load ptr, ptr %2, align 8, !tbaa !19
  %5 = getelementptr inbounds nuw i8, ptr %4, i32 1
  store ptr %5, ptr %2, align 8, !tbaa !19
  %6 = load i8, ptr %4, align 1, !tbaa !68
  %7 = zext i8 %6 to i32
  %8 = and i32 %7, 255
  %9 = sext i32 %8 to i64
  store i64 %9, ptr %3, align 8, !tbaa !6
  %10 = load ptr, ptr %2, align 8, !tbaa !19
  %11 = getelementptr inbounds nuw i8, ptr %10, i32 1
  store ptr %11, ptr %2, align 8, !tbaa !19
  %12 = load i8, ptr %10, align 1, !tbaa !68
  %13 = zext i8 %12 to i32
  %14 = and i32 %13, 255
  %15 = shl i32 %14, 8
  %16 = sext i32 %15 to i64
  %17 = load i64, ptr %3, align 8, !tbaa !6
  %18 = or i64 %17, %16
  store i64 %18, ptr %3, align 8, !tbaa !6
  %19 = load ptr, ptr %2, align 8, !tbaa !19
  %20 = getelementptr inbounds nuw i8, ptr %19, i32 1
  store ptr %20, ptr %2, align 8, !tbaa !19
  %21 = load i8, ptr %19, align 1, !tbaa !68
  %22 = zext i8 %21 to i32
  %23 = and i32 %22, 255
  %24 = shl i32 %23, 16
  %25 = sext i32 %24 to i64
  %26 = load i64, ptr %3, align 8, !tbaa !6
  %27 = or i64 %26, %25
  store i64 %27, ptr %3, align 8, !tbaa !6
  %28 = load ptr, ptr %2, align 8, !tbaa !19
  %29 = getelementptr inbounds nuw i8, ptr %28, i32 1
  store ptr %29, ptr %2, align 8, !tbaa !19
  %30 = load i8, ptr %28, align 1, !tbaa !68
  %31 = zext i8 %30 to i32
  %32 = and i32 %31, 255
  %33 = shl i32 %32, 24
  %34 = zext i32 %33 to i64
  %35 = load i64, ptr %3, align 8, !tbaa !6
  %36 = or i64 %35, %34
  store i64 %36, ptr %3, align 8, !tbaa !6
  %37 = load i64, ptr %3, align 8, !tbaa !6
  call void @llvm.lifetime.end.p0(i64 8, ptr %3) #23
  ret i64 %37
}

; Function Attrs: inlinehint nounwind sspstrong uwtable
define internal ptr @RSTRING_PTR(i64 noundef %0) #3 {
  %2 = alloca i64, align 8
  %3 = alloca ptr, align 8
  %4 = alloca %struct.RString, align 8
  store i64 %0, ptr %2, align 8, !tbaa !6
  call void @llvm.lifetime.start.p0(i64 8, ptr %3) #23
  %5 = load i64, ptr %2, align 8, !tbaa !6
  call void @rbimpl_rstring_getmem(ptr dead_on_unwind writable sret(%struct.RString) align 8 %4, i64 noundef %5) #28
  %6 = getelementptr inbounds nuw %struct.RString, ptr %4, i32 0, i32 2
  %7 = getelementptr inbounds nuw %struct.anon, ptr %6, i32 0, i32 0
  %8 = load ptr, ptr %7, align 8, !tbaa !68
  store ptr %8, ptr %3, align 8, !tbaa !19
  %9 = load ptr, ptr %3, align 8, !tbaa !19
  call void @llvm.lifetime.end.p0(i64 8, ptr %3) #23
  ret ptr %9
}

; Function Attrs: nounwind sspstrong uwtable
define internal void @gzfile_check_footer(ptr noundef %0, i64 noundef %1) #0 {
  %3 = alloca ptr, align 8
  %4 = alloca i64, align 8
  %5 = alloca i64, align 8
  %6 = alloca i64, align 8
  store ptr %0, ptr %3, align 8, !tbaa !57
  store i64 %1, ptr %4, align 8, !tbaa !6
  call void @llvm.lifetime.start.p0(i64 8, ptr %5) #23
  call void @llvm.lifetime.start.p0(i64 8, ptr %6) #23
  %7 = load ptr, ptr %3, align 8, !tbaa !57
  %8 = getelementptr inbounds nuw %struct.gzfile, ptr %7, i32 0, i32 0
  %9 = getelementptr inbounds nuw %struct.zstream, ptr %8, i32 0, i32 0
  %10 = load i64, ptr %9, align 8, !tbaa !59
  %11 = or i64 %10, 512
  store i64 %11, ptr %9, align 8, !tbaa !59
  %12 = load ptr, ptr %3, align 8, !tbaa !57
  %13 = load i64, ptr %4, align 8, !tbaa !6
  %14 = call i32 @gzfile_read_raw_ensure(ptr noundef %12, i64 noundef 8, i64 noundef %13)
  %15 = icmp ne i32 %14, 0
  br i1 %15, label %19, label %16

16:                                               ; preds = %2
  %17 = load ptr, ptr %3, align 8, !tbaa !57
  %18 = load i64, ptr @cNoFooter, align 8, !tbaa !6
  call void @gzfile_raise(ptr noundef %17, i64 noundef %18, ptr noundef @.str.182) #26
  unreachable

19:                                               ; preds = %2
  %20 = load ptr, ptr %3, align 8, !tbaa !57
  %21 = getelementptr inbounds nuw %struct.gzfile, ptr %20, i32 0, i32 0
  %22 = getelementptr inbounds nuw %struct.zstream, ptr %21, i32 0, i32 2
  %23 = load i64, ptr %22, align 8, !tbaa !76
  %24 = call ptr @RSTRING_PTR(i64 noundef %23)
  %25 = call i64 @gzfile_get32(ptr noundef %24)
  store i64 %25, ptr %5, align 8, !tbaa !6
  %26 = load ptr, ptr %3, align 8, !tbaa !57
  %27 = getelementptr inbounds nuw %struct.gzfile, ptr %26, i32 0, i32 0
  %28 = getelementptr inbounds nuw %struct.zstream, ptr %27, i32 0, i32 2
  %29 = load i64, ptr %28, align 8, !tbaa !76
  %30 = call ptr @RSTRING_PTR(i64 noundef %29)
  %31 = getelementptr inbounds i8, ptr %30, i64 4
  %32 = call i64 @gzfile_get32(ptr noundef %31)
  store i64 %32, ptr %6, align 8, !tbaa !6
  %33 = load ptr, ptr %3, align 8, !tbaa !57
  %34 = getelementptr inbounds nuw %struct.gzfile, ptr %33, i32 0, i32 0
  %35 = getelementptr inbounds nuw %struct.zstream, ptr %34, i32 0, i32 4
  %36 = getelementptr inbounds nuw %struct.z_stream_s, ptr %35, i32 0, i32 2
  %37 = load i64, ptr %36, align 8, !tbaa !63
  %38 = add i64 %37, 8
  store i64 %38, ptr %36, align 8, !tbaa !63
  %39 = load ptr, ptr %3, align 8, !tbaa !57
  %40 = getelementptr inbounds nuw %struct.gzfile, ptr %39, i32 0, i32 0
  call void @zstream_discard_input(ptr noundef %40, i64 noundef 8)
  %41 = load ptr, ptr %3, align 8, !tbaa !57
  %42 = getelementptr inbounds nuw %struct.gzfile, ptr %41, i32 0, i32 7
  %43 = load i64, ptr %42, align 8, !tbaa !50
  %44 = load i64, ptr %5, align 8, !tbaa !6
  %45 = icmp ne i64 %43, %44
  br i1 %45, label %46, label %48

46:                                               ; preds = %19
  %47 = load i64, ptr @cCRCError, align 8, !tbaa !6
  call void (i64, ptr, ...) @rb_raise(i64 noundef %47, ptr noundef @.str.183) #26
  unreachable

48:                                               ; preds = %19
  %49 = load ptr, ptr %3, align 8, !tbaa !57
  %50 = getelementptr inbounds nuw %struct.gzfile, ptr %49, i32 0, i32 0
  %51 = getelementptr inbounds nuw %struct.zstream, ptr %50, i32 0, i32 4
  %52 = getelementptr inbounds nuw %struct.z_stream_s, ptr %51, i32 0, i32 5
  %53 = load i64, ptr %52, align 8, !tbaa !62
  %54 = trunc i64 %53 to i32
  %55 = zext i32 %54 to i64
  %56 = load i64, ptr %6, align 8, !tbaa !6
  %57 = icmp ne i64 %55, %56
  br i1 %57, label %58, label %60

58:                                               ; preds = %48
  %59 = load i64, ptr @cLengthError, align 8, !tbaa !6
  call void (i64, ptr, ...) @rb_raise(i64 noundef %59, ptr noundef @.str.184) #26
  unreachable

60:                                               ; preds = %48
  call void @llvm.lifetime.end.p0(i64 8, ptr %6) #23
  call void @llvm.lifetime.end.p0(i64 8, ptr %5) #23
  ret void
}