; Function Attrs: nounwind sspstrong uwtable
define internal fastcc void @gzfile_check_footer(ptr noundef captures(none) %0, i64 noundef %1) unnamed_addr #0 {
  %3 = load i64, ptr %0, align 8, !tbaa !113
  %4 = or i64 %3, 512
  store i64 %4, ptr %0, align 8, !tbaa !113
  %5 = tail call fastcc i32 @gzfile_read_raw_ensure(ptr noundef nonnull %0, i64 noundef 8, i64 noundef %1)
  %.not = icmp eq i32 %5, 0
  br i1 %.not, label %6, label %8

6:                                                ; preds = %2
  %7 = load i64, ptr @cNoFooter, align 8, !tbaa !6
  tail call fastcc void @gzfile_raise(ptr noundef nonnull %0, i64 noundef %7, ptr noundef nonnull @.str.182) #20
  unreachable

8:                                                ; preds = %2
  %9 = getelementptr inbounds nuw i8, ptr %0, i64 16
  %10 = load i64, ptr %9, align 8, !tbaa !154
  %11 = inttoptr i64 %10 to ptr
  %12 = load i64, ptr %11, align 8, !tbaa !16, !noalias !272
  %13 = and i64 %12, 8192
  %.not.i.i = icmp eq i64 %13, 0
  %14 = getelementptr inbounds nuw i8, ptr %11, i64 24
  br i1 %.not.i.i, label %RSTRING_PTR.exit16, label %15

15:                                               ; preds = %8
  %.sroa.2.0.copyload.i = load ptr, ptr %14, align 8
  br label %RSTRING_PTR.exit16

RSTRING_PTR.exit16:                               ; preds = %8, %15
  %.sroa.2.0.i15 = phi ptr [ %.sroa.2.0.copyload.i, %15 ], [ %14, %8 ]
  %.in = load i32, ptr %.sroa.2.0.i15, align 1
  %16 = zext i32 %.in to i64
  %17 = getelementptr inbounds nuw i8, ptr %.sroa.2.0.i15, i64 4
  %18 = load i32, ptr %17, align 1
  %19 = getelementptr inbounds nuw i8, ptr %0, i64 48
  %20 = load i64, ptr %19, align 8, !tbaa !135
  %21 = add i64 %20, 8
  store i64 %21, ptr %19, align 8, !tbaa !135
  tail call fastcc void @zstream_discard_input(ptr noundef nonnull %0, i64 noundef 8)
  %22 = getelementptr inbounds nuw i8, ptr %0, i64 192
  %23 = load i64, ptr %22, align 8, !tbaa !118
  %.not11 = icmp eq i64 %23, %16
  br i1 %.not11, label %26, label %24

24:                                               ; preds = %RSTRING_PTR.exit16
  %25 = load i64, ptr @cCRCError, align 8, !tbaa !6
  tail call void (i64, ptr, ...) @rb_raise(i64 noundef %25, ptr noundef nonnull @.str.183) #19
  unreachable

26:                                               ; preds = %RSTRING_PTR.exit16
  %27 = getelementptr inbounds nuw i8, ptr %0, i64 72
  %28 = load i64, ptr %27, align 8, !tbaa !134
  %29 = trunc i64 %28 to i32
  %.not12 = icmp eq i32 %18, %29
  br i1 %.not12, label %32, label %30

30:                                               ; preds = %26
  %31 = load i64, ptr @cLengthError, align 8, !tbaa !6
  tail call void (i64, ptr, ...) @rb_raise(i64 noundef %31, ptr noundef nonnull @.str.184) #19
  unreachable

32:                                               ; preds = %26
  ret void
}